target datalayout = "e-m:e-p270:32:32-p271:32:32-p272:64:64-i64:64-i128:128-f80:128-n8:16:32:64-S128"
target triple = "x86_64-pc-linux-gnu"

; Function Attrs: nounwind uwtable
define double @dlamc3_(ptr noundef %0, ptr noundef %1) #0 {
  %3 = alloca ptr, align 8
  %4 = alloca ptr, align 8
  %5 = alloca double, align 8
  store ptr %0, ptr %3, align 8, !tbaa !14
  store ptr %1, ptr %4, align 8, !tbaa !14
  call void @llvm.lifetime.start.p0(i64 8, ptr %5) #3
  %6 = load ptr, ptr %3, align 8, !tbaa !14
  %7 = load double, ptr %6, align 8, !tbaa !10
  %8 = load ptr, ptr %4, align 8, !tbaa !14
  %9 = load double, ptr %8, align 8, !tbaa !10
  %10 = fadd double %7, %9
  store double %10, ptr %5, align 8, !tbaa !10
  %11 = load double, ptr %5, align 8, !tbaa !10
  call void @llvm.lifetime.end.p0(i64 8, ptr %5) #3
  ret double %11
}

; Function Attrs: nounwind uwtable
define i32 @dlamc4_(ptr noundef %0, ptr noundef %1, ptr noundef %2) #0 {
  %4 = alloca ptr, align 8
  %5 = alloca ptr, align 8
  %6 = alloca ptr, align 8
  %7 = alloca i32, align 4
  %8 = alloca double, align 8
  %9 = alloca double, align 8
  %10 = alloca double, align 8
  %11 = alloca i32, align 4
  %12 = alloca double, align 8
  %13 = alloca double, align 8
  %14 = alloca double, align 8
  %15 = alloca double, align 8
  %16 = alloca double, align 8
  %17 = alloca double, align 8
  %18 = alloca double, align 8
  %19 = alloca double, align 8
  store ptr %0, ptr %4, align 8, !tbaa !12
  store ptr %1, ptr %5, align 8, !tbaa !14
  store ptr %2, ptr %6, align 8, !tbaa !12
  call void @llvm.lifetime.start.p0(i64 4, ptr %7) #3
  call void @llvm.lifetime.start.p0(i64 8, ptr %8) #3
  call void @llvm.lifetime.start.p0(i64 8, ptr %9) #3
  call void @llvm.lifetime.start.p0(i64 8, ptr %10) #3
  call void @llvm.lifetime.start.p0(i64 4, ptr %11) #3
  call void @llvm.lifetime.start.p0(i64 8, ptr %12) #3
  call void @llvm.lifetime.start.p0(i64 8, ptr %13) #3
  call void @llvm.lifetime.start.p0(i64 8, ptr %14) #3
  call void @llvm.lifetime.start.p0(i64 8, ptr %15) #3
  call void @llvm.lifetime.start.p0(i64 8, ptr %16) #3
  call void @llvm.lifetime.start.p0(i64 8, ptr %17) #3
  call void @llvm.lifetime.start.p0(i64 8, ptr %18) #3
  call void @llvm.lifetime.start.p0(i64 8, ptr %19) #3
  %20 = load ptr, ptr %5, align 8, !tbaa !14
  %21 = load double, ptr %20, align 8, !tbaa !10
  store double %21, ptr %10, align 8, !tbaa !10
  store double 1.000000e+00, ptr %19, align 8, !tbaa !10
  %22 = load double, ptr %19, align 8, !tbaa !10
  %23 = load ptr, ptr %6, align 8, !tbaa !12
  %24 = load i32, ptr %23, align 4, !tbaa !8
  %25 = sitofp i32 %24 to double
  %26 = fdiv double %22, %25
  store double %26, ptr %12, align 8, !tbaa !10
  store double 0.000000e+00, ptr %9, align 8, !tbaa !10
  %27 = load ptr, ptr %4, align 8, !tbaa !12
  store i32 1, ptr %27, align 4, !tbaa !8
  %28 = load double, ptr %10, align 8, !tbaa !10
  %29 = load double, ptr %12, align 8, !tbaa !10
  %30 = fmul double %28, %29
  store double %30, ptr %8, align 8, !tbaa !10
  %31 = call double @dlamc3_(ptr noundef %8, ptr noundef %9)
  store double %31, ptr %13, align 8, !tbaa !10
  %32 = load double, ptr %10, align 8, !tbaa !10
  store double %32, ptr %15, align 8, !tbaa !10
  %33 = load double, ptr %10, align 8, !tbaa !10
  store double %33, ptr %16, align 8, !tbaa !10
  %34 = load double, ptr %10, align 8, !tbaa !10
  store double %34, ptr %17, align 8, !tbaa !10
  %35 = load double, ptr %10, align 8, !tbaa !10
  store double %35, ptr %18, align 8, !tbaa !10
  br label %36

36:                                               ; preds = %106, %3
  %37 = load double, ptr %15, align 8, !tbaa !10
  %38 = load double, ptr %10, align 8, !tbaa !10
  %39 = fcmp oeq double %37, %38
  br i1 %39, label %40, label %107

40:                                               ; preds = %36
  %41 = load double, ptr %16, align 8, !tbaa !10
  %42 = load double, ptr %10, align 8, !tbaa !10
  %43 = fcmp oeq double %41, %42
  br i1 %43, label %44, label %107

44:                                               ; preds = %40
  %45 = load double, ptr %17, align 8, !tbaa !10
  %46 = load double, ptr %10, align 8, !tbaa !10
  %47 = fcmp oeq double %45, %46
  br i1 %47, label %48, label %107

48:                                               ; preds = %44
  %49 = load double, ptr %18, align 8, !tbaa !10
  %50 = load double, ptr %10, align 8, !tbaa !10
  %51 = fcmp oeq double %49, %50
  br i1 %51, label %52, label %107

52:                                               ; preds = %48
  %53 = load ptr, ptr %4, align 8, !tbaa !12
  %54 = load i32, ptr %53, align 4, !tbaa !8
  %55 = add nsw i32 %54, -1
  store i32 %55, ptr %53, align 4, !tbaa !8
  %56 = load double, ptr %13, align 8, !tbaa !10
  store double %56, ptr %10, align 8, !tbaa !10
  %57 = load double, ptr %10, align 8, !tbaa !10
  %58 = load ptr, ptr %6, align 8, !tbaa !12
  %59 = load i32, ptr %58, align 4, !tbaa !8
  %60 = sitofp i32 %59 to double
  %61 = fdiv double %57, %60
  store double %61, ptr %8, align 8, !tbaa !10
  %62 = call double @dlamc3_(ptr noundef %8, ptr noundef %9)
  store double %62, ptr %13, align 8, !tbaa !10
  %63 = load double, ptr %13, align 8, !tbaa !10
  %64 = load ptr, ptr %6, align 8, !tbaa !12
  %65 = load i32, ptr %64, align 4, !tbaa !8
  %66 = sitofp i32 %65 to double
  %67 = fmul double %63, %66
  store double %67, ptr %8, align 8, !tbaa !10
  %68 = call double @dlamc3_(ptr noundef %8, ptr noundef %9)
  store double %68, ptr %15, align 8, !tbaa !10
  %69 = load double, ptr %9, align 8, !tbaa !10
  store double %69, ptr %17, align 8, !tbaa !10
  %70 = load ptr, ptr %6, align 8, !tbaa !12
  %71 = load i32, ptr %70, align 4, !tbaa !8
  store i32 %71, ptr %7, align 4, !tbaa !8
  store i32 1, ptr %11, align 4, !tbaa !8
  br label %72

72:                                               ; preds = %80, %52
  %73 = load i32, ptr %11, align 4, !tbaa !8
  %74 = load i32, ptr %7, align 4, !tbaa !8
  %75 = icmp sle i32 %73, %74
  br i1 %75, label %76, label %83

76:                                               ; preds = %72
  %77 = load double, ptr %13, align 8, !tbaa !10
  %78 = load double, ptr %17, align 8, !tbaa !10
  %79 = fadd double %78, %77
  store double %79, ptr %17, align 8, !tbaa !10
  br label %80

80:                                               ; preds = %76
  %81 = load i32, ptr %11, align 4, !tbaa !8
  %82 = add nsw i32 %81, 1
  store i32 %82, ptr %11, align 4, !tbaa !8
  br label %72, !llvm.loop !21

83:                                               ; preds = %72
  %84 = load double, ptr %10, align 8, !tbaa !10
  %85 = load double, ptr %12, align 8, !tbaa !10
  %86 = fmul double %84, %85
  store double %86, ptr %8, align 8, !tbaa !10
  %87 = call double @dlamc3_(ptr noundef %8, ptr noundef %9)
  store double %87, ptr %14, align 8, !tbaa !10
  %88 = load double, ptr %14, align 8, !tbaa !10
  %89 = load double, ptr %12, align 8, !tbaa !10
  %90 = fdiv double %88, %89
  store double %90, ptr %8, align 8, !tbaa !10
  %91 = call double @dlamc3_(ptr noundef %8, ptr noundef %9)
  store double %91, ptr %16, align 8, !tbaa !10
  %92 = load double, ptr %9, align 8, !tbaa !10
  store double %92, ptr %18, align 8, !tbaa !10
  %93 = load ptr, ptr %6, align 8, !tbaa !12
  %94 = load i32, ptr %93, align 4, !tbaa !8
  store i32 %94, ptr %7, align 4, !tbaa !8
  store i32 1, ptr %11, align 4, !tbaa !8
  br label %95

95:                                               ; preds = %103, %83
  %96 = load i32, ptr %11, align 4, !tbaa !8
  %97 = load i32, ptr %7, align 4, !tbaa !8
  %98 = icmp sle i32 %96, %97
  br i1 %98, label %99, label %106

99:                                               ; preds = %95
  %100 = load double, ptr %14, align 8, !tbaa !10
  %101 = load double, ptr %18, align 8, !tbaa !10
  %102 = fadd double %101, %100
  store double %102, ptr %18, align 8, !tbaa !10
  br label %103

103:                                              ; preds = %99
  %104 = load i32, ptr %11, align 4, !tbaa !8
  %105 = add nsw i32 %104, 1
  store i32 %105, ptr %11, align 4, !tbaa !8
  br label %95, !llvm.loop !22

106:                                              ; preds = %95
  br label %36

107:                                              ; preds = %48, %44, %40, %36
  call void @llvm.lifetime.end.p0(i64 8, ptr %19) #3
  call void @llvm.lifetime.end.p0(i64 8, ptr %18) #3
  call void @llvm.lifetime.end.p0(i64 8, ptr %17) #3
  call void @llvm.lifetime.end.p0(i64 8, ptr %16) #3
  call void @llvm.lifetime.end.p0(i64 8, ptr %15) #3
  call void @llvm.lifetime.end.p0(i64 8, ptr %14) #3
  call void @llvm.lifetime.end.p0(i64 8, ptr %13) #3
  call void @llvm.lifetime.end.p0(i64 8, ptr %12) #3
  call void @llvm.lifetime.end.p0(i64 4, ptr %11) #3
  call void @llvm.lifetime.end.p0(i64 8, ptr %10) #3
  call void @llvm.lifetime.end.p0(i64 8, ptr %9) #3
  call void @llvm.lifetime.end.p0(i64 8, ptr %8) #3
  call void @llvm.lifetime.end.p0(i64 4, ptr %7) #3
  ret i32 0
}