; Function Attrs: nofree norecurse nosync nounwind memory(argmem: readwrite) uwtable
define noundef i32 @dlamc4_(ptr noundef writeonly captures(none) initializes((0, 4)) %0, ptr noundef readonly captures(none) %1, ptr noundef readonly captures(none) %2) local_unnamed_addr #5 {
  %4 = load double, ptr %1, align 8, !tbaa !7
  %5 = load i32, ptr %2, align 4, !tbaa !3
  %6 = sitofp i32 %5 to double
  %7 = fdiv double 1.000000e+00, %6
  store i32 1, ptr %0, align 4, !tbaa !3
  %8 = fcmp ord double %4, 0.000000e+00
  br i1 %8, label %.lr.ph75.preheader, label %._crit_edge76

.lr.ph75.preheader:                               ; preds = %3
  %9 = fmul double %4, %7
  %10 = fadd double %9, 0.000000e+00
  br label %.lr.ph75

.loopexit:                                        ; preds = %.lr.ph68, %._crit_edge.thread
  %.pn = phi double [ %24, %._crit_edge.thread ], [ %28, %.lr.ph68 ]
  %.140.lcssa80 = phi double [ 0.000000e+00, %._crit_edge.thread ], [ %25, %.lr.ph68 ]
  %.1.lcssa = phi double [ 0.000000e+00, %._crit_edge.thread ], [ %29, %.lr.ph68 ]
  %11 = fdiv double %.pn, %7
  %12 = fcmp oeq double %22, %.04473
  %13 = fcmp oeq double %11, %.04473
  %or.cond = select i1 %12, i1 %13, i1 false
  %14 = fcmp oeq double %.140.lcssa80, %.04473
  %or.cond48 = select i1 %or.cond, i1 %14, i1 false
  %15 = fcmp oeq double %.1.lcssa, %.04473
  %or.cond49 = select i1 %or.cond48, i1 %15, i1 false
  br i1 %or.cond49, label %.lr.ph75, label %._crit_edge76

.lr.ph75:                                         ; preds = %.lr.ph75.preheader, %.loopexit
  %16 = phi i32 [ %17, %.loopexit ], [ 1, %.lr.ph75.preheader ]
  %.04473 = phi double [ %21, %.loopexit ], [ %10, %.lr.ph75.preheader ]
  %17 = add nsw i32 %16, -1
  store i32 %17, ptr %0, align 4, !tbaa !3
  %18 = load i32, ptr %2, align 4, !tbaa !3
  %19 = sitofp i32 %18 to double
  %20 = fdiv double %.04473, %19
  %21 = fadd double %20, 0.000000e+00
  %22 = fmul double %21, %19
  %.not61 = icmp slt i32 %18, 1
  br i1 %.not61, label %._crit_edge.thread, label %.lr.ph

._crit_edge.thread:                               ; preds = %.lr.ph75
  %23 = fmul double %7, %.04473
  %24 = fadd double %23, 0.000000e+00
  br label %.loopexit

.lr.ph:                                           ; preds = %.lr.ph75, %.lr.ph
  %.14063 = phi double [ %25, %.lr.ph ], [ 0.000000e+00, %.lr.ph75 ]
  %.04562 = phi i32 [ %26, %.lr.ph ], [ 1, %.lr.ph75 ]
  %25 = fadd double %21, %.14063
  %26 = add nuw i32 %.04562, 1
  %exitcond.not = icmp eq i32 %.04562, %18
  br i1 %exitcond.not, label %._crit_edge, label %.lr.ph, !llvm.loop !11

._crit_edge:                                      ; preds = %.lr.ph
  %27 = fmul double %7, %.04473
  %28 = fadd double %27, 0.000000e+00
  br label %.lr.ph68

.lr.ph68:                                         ; preds = %._crit_edge, %.lr.ph68
  %.166 = phi double [ %29, %.lr.ph68 ], [ 0.000000e+00, %._crit_edge ]
  %.14665 = phi i32 [ %30, %.lr.ph68 ], [ 1, %._crit_edge ]
  %29 = fadd double %28, %.166
  %30 = add nuw i32 %.14665, 1
  %exitcond78.not = icmp eq i32 %.14665, %18
  br i1 %exitcond78.not, label %.loopexit, label %.lr.ph68, !llvm.loop !12

._crit_edge76:                                    ; preds = %.loopexit, %3
  ret i32 0
}